Certificate:
    Data:
        Version: 1 (0x0)
        Serial Number:
            35:31:8a:5f:ec:4a:9e:67:62:8a:16:11:7d:95:91:59:42:65:6c:30
        Signature Algorithm: ecdsa-with-SHA256
        Issuer: C=CN, ST=SH, L=BaoSight, O=letsgo, CN=MainCA/emailAddress=mainca@baosight.com
        Validity
            Not Before: Jun 19 08:39:50 2025 GMT
            Not After : Jun 17 08:39:50 2035 GMT
        Subject: C=CN, ST=SH, O=letsgo, CN=publisher/emailAddress=pub@baosight.com
        Subject Public Key Info:
            Public Key Algorithm: id-ecPublicKey
                Public-Key: (256 bit)
                pub:
                    04:b5:7d:dc:1a:5a:00:65:9f:5d:70:76:09:51:61:
                    55:c2:6b:ca:d5:d0:d9:92:94:e2:1f:a3:34:5a:9f:
                    1d:6d:f2:2b:d1:fa:4d:c4:e2:42:77:e9:1d:44:31:
                    15:09:4c:f1:a5:2e:0b:e7:4e:2f:cc:a5:d8:52:7b:
                    1c:13:fe:65:e9
                ASN1 OID: prime256v1
                NIST CURVE: P-256
    Signature Algorithm: ecdsa-with-SHA256
         30:45:02:20:52:d6:a3:7f:69:5c:d5:1d:dc:ab:07:2e:80:28:
         41:46:0e:4d:73:a5:ea:c5:32:b2:a5:0d:6c:57:09:29:20:3b:
         02:21:00:dd:86:2f:04:83:72:c9:e2:d3:45:1f:03:a1:89:86:
         88:15:6f:54:c1:84:81:b6:a1:55:1a:5c:ec:52:e1:e7:4b
-----BEGIN CERTIFICATE-----
MIIBzjCCAXQCFDUxil/sSp5nYooWEX2VkVlCZWwwMAoGCCqGSM49BAMCMHMxCzAJ
BgNVBAYTAkNOMQswCQYDVQQIDAJTSDERMA8GA1UEBwwIQmFvU2lnaHQxDzANBgNV
BAoMBmxldHNnbzEPMA0GA1UEAwwGTWFpbkNBMSIwIAYJKoZIhvcNAQkBFhNtYWlu
Y2FAYmFvc2lnaHQuY29tMB4XDTI1MDYxOTA4Mzk1MFoXDTM1MDYxNzA4Mzk1MFow
YDELMAkGA1UEBhMCQ04xCzAJBgNVBAgMAlNIMQ8wDQYDVQQKDAZsZXRzZ28xEjAQ
BgNVBAMMCXB1Ymxpc2hlcjEfMB0GCSqGSIb3DQEJARYQcHViQGJhb3NpZ2h0LmNv
bTBZMBMGByqGSM49AgEGCCqGSM49AwEHA0IABLV93BpaAGWfXXB2CVFhVcJrytXQ
2ZKU4h+jNFqfHW3yK9H6TcTiQnfpHUQxFQlM8aUuC+dOL8yl2FJ7HBP+ZekwCgYI
KoZIzj0EAwIDSAAwRQIgUtajf2lc1R3cqwcugChBRg5Nc6XqxTKypQ1sVwkpIDsC
IQDdhi8Eg3LJ4tNFHwOhiYaIFW9UwYSBtqFVGlzsUuHnSw==
-----END CERTIFICATE-----
