Certificate:
    Data:
        Version: 1 (0x0)
        Serial Number:
            35:31:8a:5f:ec:4a:9e:67:62:8a:16:11:7d:95:91:59:42:65:6c:31
        Signature Algorithm: ecdsa-with-SHA256
        Issuer: C=CN, ST=SH, L=BaoSight, O=letsgo, CN=MainCA/emailAddress=mainca@baosight.com
        Validity
            Not Before: Jun 19 08:40:56 2025 GMT
            Not After : Jun 17 08:40:56 2035 GMT
        Subject: C=CN, ST=SH, O=letsgo, CN=subscriber/emailAddress=sub@baosight.com
        Subject Public Key Info:
            Public Key Algorithm: id-ecPublicKey
                Public-Key: (256 bit)
                pub:
                    04:af:29:f3:65:53:61:de:06:21:91:0e:62:62:0a:
                    9a:81:5e:08:5d:50:a3:25:85:8f:17:60:d3:11:a5:
                    4a:fd:86:ee:f3:7f:ab:eb:92:a8:a9:de:93:19:87:
                    84:3a:74:e7:24:3a:3c:72:93:8a:0e:03:7a:1e:40:
                    80:25:dc:0c:c9
                ASN1 OID: prime256v1
                NIST CURVE: P-256
    Signature Algorithm: ecdsa-with-SHA256
         30:45:02:20:60:ee:9f:2d:70:4e:a6:d9:5c:22:55:ed:b8:69:
         6a:b3:cc:0c:35:a1:55:8a:a5:eb:d6:2b:1c:76:fb:67:21:1a:
         02:21:00:8d:da:45:15:21:5b:75:26:f5:c8:82:3a:b6:35:33:
         14:f8:ca:13:2d:8d:a9:18:7f:cf:1c:d6:3d:87:ad:59:e6
-----BEGIN CERTIFICATE-----
MIIBzzCCAXUCFDUxil/sSp5nYooWEX2VkVlCZWwxMAoGCCqGSM49BAMCMHMxCzAJ
BgNVBAYTAkNOMQswCQYDVQQIDAJTSDERMA8GA1UEBwwIQmFvU2lnaHQxDzANBgNV
BAoMBmxldHNnbzEPMA0GA1UEAwwGTWFpbkNBMSIwIAYJKoZIhvcNAQkBFhNtYWlu
Y2FAYmFvc2lnaHQuY29tMB4XDTI1MDYxOTA4NDA1NloXDTM1MDYxNzA4NDA1Nlow
YTELMAkGA1UEBhMCQ04xCzAJBgNVBAgMAlNIMQ8wDQYDVQQKDAZsZXRzZ28xEzAR
BgNVBAMMCnN1YnNjcmliZXIxHzAdBgkqhkiG9w0BCQEWEHN1YkBiYW9zaWdodC5j
b20wWTATBgcqhkjOPQIBBggqhkjOPQMBBwNCAASvKfNlU2HeBiGRDmJiCpqBXghd
UKMlhY8XYNMRpUr9hu7zf6vrkqip3pMZh4Q6dOckOjxyk4oOA3oeQIAl3AzJMAoG
CCqGSM49BAMCA0gAMEUCIGDuny1wTqbZXCJV7bhparPMDDWhVYql69YrHHb7ZyEa
AiEAjdpFFSFbdSb1yII6tjUzFPjKEy2NqRh/zxzWPYetWeY=
-----END CERTIFICATE-----
